; Function Attrs: mustprogress uwtable
define noundef zeroext i1 @_ZN13duckdb_snappy23IsValidCompressedBufferEPKcm(ptr noundef %0, i64 noundef %1) local_unnamed_addr #3 personality ptr @__gxx_personality_v0 {
  %3 = alloca %"class.duckdb_snappy::ByteArraySource", align 8
  %4 = alloca %"class.duckdb_snappy::SnappyDecompressionValidator", align 8
  call void @llvm.lifetime.start.p0(i64 24, ptr nonnull %3) #27
  store ptr getelementptr inbounds nuw inrange(-16, 40) (i8, ptr @_ZTVN13duckdb_snappy15ByteArraySourceE, i64 16), ptr %3, align 8, !tbaa !49
  %5 = getelementptr inbounds nuw i8, ptr %3, i64 8
  store ptr %0, ptr %5, align 8, !tbaa !55
  %6 = getelementptr inbounds nuw i8, ptr %3, i64 16
  store i64 %1, ptr %6, align 8, !tbaa !58
  call void @llvm.lifetime.start.p0(i64 16, ptr nonnull %4) #27
  call void @llvm.memset.p0.i64(ptr noundef nonnull align 8 dereferenceable(16) %4, i8 0, i64 16, i1 false)
  %7 = invoke fastcc noundef zeroext i1 @_ZN13duckdb_snappyL18InternalUncompressINS_28SnappyDecompressionValidatorEEEbPNS_6SourceEPT_(ptr noundef nonnull %3, ptr noundef %4)
          to label %8 unwind label %9

8:                                                ; preds = %2
  call void @llvm.lifetime.end.p0(i64 16, ptr nonnull %4) #27
  call void @_ZN13duckdb_snappy15ByteArraySourceD1Ev(ptr noundef nonnull align 8 dereferenceable(24) %3) #27
  call void @llvm.lifetime.end.p0(i64 24, ptr nonnull %3) #27
  ret i1 %7

9:                                                ; preds = %2
  %10 = landingpad { ptr, i32 }
          cleanup
  call void @llvm.lifetime.end.p0(i64 16, ptr nonnull %4) #27
  call void @_ZN13duckdb_snappy15ByteArraySourceD1Ev(ptr noundef nonnull align 8 dereferenceable(24) %3) #27
  call void @llvm.lifetime.end.p0(i64 24, ptr nonnull %3) #27
  resume { ptr, i32 } %10
}